; Function Attrs: nounwind uwtable
define internal range(i32 0, 2) i32 @dh_to_DH_pem_encode(ptr noundef %0, ptr noundef %1, ptr noundef %2, ptr noundef readnone captures(address_is_null) %3, i32 noundef %4, ptr readnone captures(none) %5, ptr readnone captures(none) %6) #0 {
  %.not = icmp eq ptr %3, null
  br i1 %.not, label %9, label %8

8:                                                ; preds = %7
  tail call void @ERR_new() #5
  tail call void @ERR_set_debug(ptr noundef nonnull @.str, i32 noundef 1549, ptr noundef nonnull @__func__.dh_to_DH_pem_encode) #5
  tail call void (i32, i32, ptr, ...) @ERR_set_error(i32 noundef 57, i32 noundef 524550, ptr noundef null) #5
  br label %key2any_encode.exit

9:                                                ; preds = %7
  %10 = and i32 %4, 132
  %.not5 = icmp eq i32 %10, 0
  br i1 %.not5, label %28, label %11

11:                                               ; preds = %9
  %12 = icmp eq ptr %2, null
  br i1 %12, label %13, label %14

13:                                               ; preds = %11
  tail call void @ERR_new() #5
  tail call void @ERR_set_debug(ptr noundef nonnull @.str, i32 noundef 1140, ptr noundef nonnull @__func__.key2any_encode) #5
  tail call void (i32, i32, ptr, ...) @ERR_set_error(i32 noundef 57, i32 noundef 786690, ptr noundef null) #5
  br label %key2any_encode.exit

14:                                               ; preds = %11
  %15 = tail call i32 @DH_test_flags(ptr noundef nonnull %2, i32 noundef 4096) #5
  %.not.i.not = icmp eq i32 %15, 0
  br i1 %.not.i.not, label %16, label %27

16:                                               ; preds = %14
  %17 = load ptr, ptr %0, align 8, !tbaa !3
  %18 = tail call ptr @ossl_bio_new_from_core_bio(ptr noundef %17, ptr noundef %1) #5
  %.not28.i = icmp eq ptr %18, null
  br i1 %.not28.i, label %25, label %19

19:                                               ; preds = %16
  %20 = getelementptr inbounds nuw i8, ptr %0, i64 16
  %21 = load ptr, ptr %20, align 8, !tbaa !15
  %22 = tail call i32 @PEM_ASN1_write_bio_ctx(ptr noundef nonnull @dh_type_specific_params_to_der, ptr noundef nonnull %0, ptr noundef nonnull @.str.6, ptr noundef nonnull %18, ptr noundef nonnull %2, ptr noundef %21, ptr noundef null, i32 noundef 0, ptr noundef null, ptr noundef null) #5
  %23 = icmp sgt i32 %22, 0
  %24 = zext i1 %23 to i32
  br label %25

25:                                               ; preds = %19, %16
  %.1.i = phi i32 [ %24, %19 ], [ 0, %16 ]
  %26 = tail call i32 @BIO_free(ptr noundef %18) #5
  br label %key2any_encode.exit

27:                                               ; preds = %14
  tail call void @ERR_new() #5
  tail call void @ERR_set_debug(ptr noundef nonnull @.str, i32 noundef 1153, ptr noundef nonnull @__func__.key2any_encode) #5
  tail call void (i32, i32, ptr, ...) @ERR_set_error(i32 noundef 57, i32 noundef 524550, ptr noundef null) #5
  br label %key2any_encode.exit

28:                                               ; preds = %9
  tail call void @ERR_new() #5
  tail call void @ERR_set_debug(ptr noundef nonnull @.str, i32 noundef 1549, ptr noundef nonnull @__func__.dh_to_DH_pem_encode) #5
  tail call void (i32, i32, ptr, ...) @ERR_set_error(i32 noundef 57, i32 noundef 524550, ptr noundef null) #5
  br label %key2any_encode.exit

key2any_encode.exit:                              ; preds = %27, %25, %13, %28, %8
  %.0 = phi i32 [ 0, %8 ], [ 0, %28 ], [ 0, %13 ], [ %.1.i, %25 ], [ 0, %27 ]
  ret i32 %.0
}